target datalayout = "e-m:e-p270:32:32-p271:32:32-p272:64:64-i64:64-i128:128-f80:128-n8:16:32:64-S128"
target triple = "x86_64-pc-linux-gnu"

; Function Attrs: mustprogress uwtable
define i32 @proj_degree_input(ptr noundef %0, i32 noundef %1) #1 {
  %3 = alloca i32, align 4
  %4 = alloca ptr, align 8
  %5 = alloca i32, align 4
  store ptr %0, ptr %4, align 8
  store i32 %1, ptr %5, align 4
  %6 = load i32, ptr %5, align 4
  %7 = icmp eq i32 1, %6
  br i1 %7, label %8, label %13

8:                                                ; preds = %2
  %9 = load ptr, ptr %4, align 8
  %10 = call noundef i32 @_Z7pj_leftP8PJconsts(ptr noundef %9)
  %11 = icmp eq i32 %10, 5
  %12 = zext i1 %11 to i32
  store i32 %12, ptr %3, align 4
  br label %18

13:                                               ; preds = %2
  %14 = load ptr, ptr %4, align 8
  %15 = call noundef i32 @_Z8pj_rightP8PJconsts(ptr noundef %14)
  %16 = icmp eq i32 %15, 5
  %17 = zext i1 %16 to i32
  store i32 %17, ptr %3, align 4
  br label %18

18:                                               ; preds = %13, %8
  %19 = load i32, ptr %3, align 4
  ret i32 %19
}

; Function Attrs: mustprogress nounwind uwtable
define internal noundef i32 @_ZL18opposite_direction12PJ_DIRECTION(i32 noundef %0) #0 {
  %2 = alloca i32, align 4
  store i32 %0, ptr %2, align 4
  %3 = load i32, ptr %2, align 4
  %4 = sub nsw i32 0, %3
  ret i32 %4
}

; Function Attrs: mustprogress uwtable
define i32 @proj_degree_output(ptr noundef %0, i32 noundef %1) #1 {
  %3 = alloca ptr, align 8
  %4 = alloca i32, align 4
  store ptr %0, ptr %3, align 8
  store i32 %1, ptr %4, align 4
  %5 = load ptr, ptr %3, align 8
  %6 = load i32, ptr %4, align 4
  %7 = call noundef i32 @_ZL18opposite_direction12PJ_DIRECTION(i32 noundef %6)
  %8 = call i32 @proj_degree_input(ptr noundef %5, i32 noundef %7)
  ret i32 %8
}